target datalayout = "e-m:e-p270:32:32-p271:32:32-p272:64:64-i64:64-i128:128-f80:128-n8:16:32:64-S128"
target triple = "x86_64-pc-linux-gnu"

%struct.Extra_BitMat_t_ = type { ptr, i32, i32, i32, i32, i32, i32, i32 }

; Function Attrs: nounwind uwtable
define i32 @Extra_BitMatrixLookup1(ptr noundef %0, i32 noundef %1, i32 noundef %2) #0 {
  %4 = alloca i32, align 4
  %5 = alloca ptr, align 8
  %6 = alloca i32, align 4
  %7 = alloca i32, align 4
  store ptr %0, ptr %5, align 8
  store i32 %1, ptr %6, align 4
  store i32 %2, ptr %7, align 4
  %8 = load ptr, ptr %5, align 8
  %9 = getelementptr inbounds %struct.Extra_BitMat_t_, ptr %8, i32 0, i32 5
  %10 = load i32, ptr %9, align 8
  %11 = add nsw i32 %10, 1
  store i32 %11, ptr %9, align 8
  %12 = load i32, ptr %6, align 4
  %13 = load i32, ptr %7, align 4
  %14 = icmp slt i32 %12, %13
  br i1 %14, label %15, label %40

15:                                               ; preds = %3
  %16 = load ptr, ptr %5, align 8
  %17 = getelementptr inbounds %struct.Extra_BitMat_t_, ptr %16, i32 0, i32 0
  %18 = load ptr, ptr %17, align 8
  %19 = load i32, ptr %6, align 4
  %20 = sext i32 %19 to i64
  %21 = getelementptr inbounds ptr, ptr %18, i64 %20
  %22 = load ptr, ptr %21, align 8
  %23 = load i32, ptr %7, align 4
  %24 = load ptr, ptr %5, align 8
  %25 = getelementptr inbounds %struct.Extra_BitMat_t_, ptr %24, i32 0, i32 3
  %26 = load i32, ptr %25, align 8
  %27 = ashr i32 %23, %26
  %28 = sext i32 %27 to i64
  %29 = getelementptr inbounds i32, ptr %22, i64 %28
  %30 = load i32, ptr %29, align 4
  %31 = load i32, ptr %7, align 4
  %32 = load ptr, ptr %5, align 8
  %33 = getelementptr inbounds %struct.Extra_BitMat_t_, ptr %32, i32 0, i32 4
  %34 = load i32, ptr %33, align 4
  %35 = and i32 %31, %34
  %36 = shl i32 1, %35
  %37 = and i32 %30, %36
  %38 = icmp ugt i32 %37, 0
  %39 = zext i1 %38 to i32
  store i32 %39, ptr %4, align 4
  br label %65

40:                                               ; preds = %3
  %41 = load ptr, ptr %5, align 8
  %42 = getelementptr inbounds %struct.Extra_BitMat_t_, ptr %41, i32 0, i32 0
  %43 = load ptr, ptr %42, align 8
  %44 = load i32, ptr %7, align 4
  %45 = sext i32 %44 to i64
  %46 = getelementptr inbounds ptr, ptr %43, i64 %45
  %47 = load ptr, ptr %46, align 8
  %48 = load i32, ptr %6, align 4
  %49 = load ptr, ptr %5, align 8
  %50 = getelementptr inbounds %struct.Extra_BitMat_t_, ptr %49, i32 0, i32 3
  %51 = load i32, ptr %50, align 8
  %52 = ashr i32 %48, %51
  %53 = sext i32 %52 to i64
  %54 = getelementptr inbounds i32, ptr %47, i64 %53
  %55 = load i32, ptr %54, align 4
  %56 = load i32, ptr %6, align 4
  %57 = load ptr, ptr %5, align 8
  %58 = getelementptr inbounds %struct.Extra_BitMat_t_, ptr %57, i32 0, i32 4
  %59 = load i32, ptr %58, align 4
  %60 = and i32 %56, %59
  %61 = shl i32 1, %60
  %62 = and i32 %55, %61
  %63 = icmp ugt i32 %62, 0
  %64 = zext i1 %63 to i32
  store i32 %64, ptr %4, align 4
  br label %65

65:                                               ; preds = %40, %15
  %66 = load i32, ptr %4, align 4
  ret i32 %66
}

; Function Attrs: nounwind uwtable
define i32 @Extra_BitMatrixIsClique(ptr noundef %0) #0 {
  %2 = alloca i32, align 4
  %3 = alloca ptr, align 8
  %4 = alloca i32, align 4
  %5 = alloca i32, align 4
  %6 = alloca i32, align 4
  store ptr %0, ptr %3, align 8
  store i32 0, ptr %4, align 4
  br label %7

7:                                                ; preds = %65, %1
  %8 = load i32, ptr %4, align 4
  %9 = load ptr, ptr %3, align 8
  %10 = getelementptr inbounds %struct.Extra_BitMat_t_, ptr %9, i32 0, i32 1
  %11 = load i32, ptr %10, align 8
  %12 = icmp slt i32 %8, %11
  br i1 %12, label %13, label %68

13:                                               ; preds = %7
  %14 = load i32, ptr %4, align 4
  %15 = add nsw i32 %14, 1
  store i32 %15, ptr %5, align 4
  br label %16

16:                                               ; preds = %61, %13
  %17 = load i32, ptr %5, align 4
  %18 = load ptr, ptr %3, align 8
  %19 = getelementptr inbounds %struct.Extra_BitMat_t_, ptr %18, i32 0, i32 1
  %20 = load i32, ptr %19, align 8
  %21 = icmp slt i32 %17, %20
  br i1 %21, label %22, label %64

22:                                               ; preds = %16
  %23 = load ptr, ptr %3, align 8
  %24 = load i32, ptr %4, align 4
  %25 = load i32, ptr %5, align 4
  %26 = call i32 @Extra_BitMatrixLookup1(ptr noundef %23, i32 noundef %24, i32 noundef %25)
  %27 = icmp ne i32 %26, 0
  br i1 %27, label %29, label %28

28:                                               ; preds = %22
  br label %61

29:                                               ; preds = %22
  store i32 0, ptr %6, align 4
  br label %30

30:                                               ; preds = %57, %29
  %31 = load i32, ptr %6, align 4
  %32 = load ptr, ptr %3, align 8
  %33 = getelementptr inbounds %struct.Extra_BitMat_t_, ptr %32, i32 0, i32 1
  %34 = load i32, ptr %33, align 8
  %35 = icmp slt i32 %31, %34
  br i1 %35, label %36, label %60

36:                                               ; preds = %30
  %37 = load i32, ptr %6, align 4
  %38 = load i32, ptr %4, align 4
  %39 = icmp eq i32 %37, %38
  br i1 %39, label %44, label %40

40:                                               ; preds = %36
  %41 = load i32, ptr %6, align 4
  %42 = load i32, ptr %5, align 4
  %43 = icmp eq i32 %41, %42
  br i1 %43, label %44, label %45

44:                                               ; preds = %40, %36
  br label %57

45:                                               ; preds = %40
  %46 = load ptr, ptr %3, align 8
  %47 = load i32, ptr %6, align 4
  %48 = load i32, ptr %4, align 4
  %49 = call i32 @Extra_BitMatrixLookup1(ptr noundef %46, i32 noundef %47, i32 noundef %48)
  %50 = load ptr, ptr %3, align 8
  %51 = load i32, ptr %6, align 4
  %52 = load i32, ptr %5, align 4
  %53 = call i32 @Extra_BitMatrixLookup1(ptr noundef %50, i32 noundef %51, i32 noundef %52)
  %54 = icmp ne i32 %49, %53
  br i1 %54, label %55, label %56

55:                                               ; preds = %45
  store i32 0, ptr %2, align 4
  br label %69

56:                                               ; preds = %45
  br label %57

57:                                               ; preds = %56, %44
  %58 = load i32, ptr %6, align 4
  %59 = add nsw i32 %58, 1
  store i32 %59, ptr %6, align 4
  br label %30, !llvm.loop !15

60:                                               ; preds = %30
  br label %61

61:                                               ; preds = %60, %28
  %62 = load i32, ptr %5, align 4
  %63 = add nsw i32 %62, 1
  store i32 %63, ptr %5, align 4
  br label %16, !llvm.loop !16

64:                                               ; preds = %16
  br label %65

65:                                               ; preds = %64
  %66 = load i32, ptr %4, align 4
  %67 = add nsw i32 %66, 1
  store i32 %67, ptr %4, align 4
  br label %7, !llvm.loop !17

68:                                               ; preds = %7
  store i32 1, ptr %2, align 4
  br label %69

69:                                               ; preds = %68, %55
  %70 = load i32, ptr %2, align 4
  ret i32 %70
}