; Function Attrs: nofree norecurse nosync nounwind memory(read, argmem: readwrite, inaccessiblemem: none) uwtable
define range(i32 0, 2) i32 @Extra_BitMatrixIsClique(ptr noundef captures(none) %0) local_unnamed_addr #11 {
  %2 = getelementptr inbounds nuw i8, ptr %0, i64 8
  %3 = load i32, ptr %2, align 8
  %4 = icmp sgt i32 %3, 0
  br i1 %4, label %.lr.ph.split.us.preheader, label %.loopexit33

.lr.ph.split.us.preheader:                        ; preds = %1
  %5 = getelementptr inbounds nuw i8, ptr %0, i64 24
  %6 = getelementptr inbounds nuw i8, ptr %0, i64 16
  %7 = getelementptr inbounds nuw i8, ptr %0, i64 20
  br label %.lr.ph.split.us

.lr.ph.split.us:                                  ; preds = %.lr.ph.split.us.preheader, %.loopexit34.us
  %.02440.us = phi i32 [ %8, %.loopexit34.us ], [ 0, %.lr.ph.split.us.preheader ]
  %8 = add nuw nsw i32 %.02440.us, 1
  %9 = icmp slt i32 %8, %3
  br i1 %9, label %.lr.ph39.us, label %.loopexit34.us

.loopexit34.us:                                   ; preds = %..loopexit_crit_edge.us.us, %.lr.ph.split.us
  %exitcond44.not = icmp eq i32 %8, %3
  br i1 %exitcond44.not, label %.loopexit33, label %.lr.ph.split.us, !llvm.loop !15

.lr.ph39.us:                                      ; preds = %.lr.ph.split.us
  %10 = load ptr, ptr %0, align 8
  %11 = load i32, ptr %6, align 8
  %12 = load i32, ptr %7, align 4
  %.promoted.us = load i32, ptr %5, align 8
  br label %13

13:                                               ; preds = %..loopexit_crit_edge.us.us, %.lr.ph39.us
  %14 = phi i32 [ %.promoted.us, %.lr.ph39.us ], [ %55, %..loopexit_crit_edge.us.us ]
  %.02337.us.us = phi i32 [ %8, %.lr.ph39.us ], [ %56, %..loopexit_crit_edge.us.us ]
  %15 = add nsw i32 %14, 1
  store i32 %15, ptr %5, align 8
  %..i.us.us = tail call i32 @llvm.smin.i32(i32 %.02440.us, i32 %.02337.us.us)
  %.26.i.us.us = tail call i32 @llvm.smax.i32(i32 %.02440.us, i32 %.02337.us.us)
  %16 = zext nneg i32 %..i.us.us to i64
  %17 = getelementptr inbounds nuw ptr, ptr %10, i64 %16
  %18 = load ptr, ptr %17, align 8
  %19 = lshr i32 %.26.i.us.us, %11
  %20 = zext nneg i32 %19 to i64
  %21 = getelementptr inbounds nuw i32, ptr %18, i64 %20
  %22 = load i32, ptr %21, align 4
  %23 = and i32 %12, %.26.i.us.us
  %24 = shl nuw i32 1, %23
  %25 = and i32 %22, %24
  %.not.us.us = icmp eq i32 %25, 0
  br i1 %.not.us.us, label %..loopexit_crit_edge.us.us, label %.preheader.us.us

.preheader.us.us:                                 ; preds = %13, %52
  %26 = phi i32 [ %53, %52 ], [ %15, %13 ]
  %.036.us.us = phi i32 [ %54, %52 ], [ 0, %13 ]
  %27 = icmp eq i32 %.036.us.us, %.02440.us
  %28 = icmp eq i32 %.036.us.us, %.02337.us.us
  %or.cond.us.us = or i1 %27, %28
  br i1 %or.cond.us.us, label %52, label %29

29:                                               ; preds = %.preheader.us.us
  %30 = add nsw i32 %26, 1
  store i32 %30, ptr %5, align 8
  %..i27.us.us = tail call i32 @llvm.smin.i32(i32 %.036.us.us, i32 %.02440.us)
  %.26.i28.us.us = tail call i32 @llvm.smax.i32(i32 %.036.us.us, i32 %.02440.us)
  %31 = zext nneg i32 %..i27.us.us to i64
  %32 = getelementptr inbounds nuw ptr, ptr %10, i64 %31
  %33 = load ptr, ptr %32, align 8
  %34 = lshr i32 %.26.i28.us.us, %11
  %35 = zext nneg i32 %34 to i64
  %36 = getelementptr inbounds nuw i32, ptr %33, i64 %35
  %37 = load i32, ptr %36, align 4
  %38 = and i32 %.26.i28.us.us, %12
  %39 = lshr i32 %37, %38
  %40 = add nsw i32 %26, 2
  store i32 %40, ptr %5, align 8
  %..i30.us.us = tail call i32 @llvm.smin.i32(i32 %.036.us.us, i32 %.02337.us.us)
  %.26.i31.us.us = tail call i32 @llvm.smax.i32(i32 %.036.us.us, i32 %.02337.us.us)
  %41 = zext nneg i32 %..i30.us.us to i64
  %42 = getelementptr inbounds nuw ptr, ptr %10, i64 %41
  %43 = load ptr, ptr %42, align 8
  %44 = lshr i32 %.26.i31.us.us, %11
  %45 = zext nneg i32 %44 to i64
  %46 = getelementptr inbounds nuw i32, ptr %43, i64 %45
  %47 = load i32, ptr %46, align 4
  %48 = and i32 %.26.i31.us.us, %12
  %49 = lshr i32 %47, %48
  %50 = xor i32 %49, %39
  %51 = and i32 %50, 1
  %.not26.us.us = icmp eq i32 %51, 0
  br i1 %.not26.us.us, label %52, label %.loopexit33

52:                                               ; preds = %29, %.preheader.us.us
  %53 = phi i32 [ %40, %29 ], [ %26, %.preheader.us.us ]
  %54 = add nuw nsw i32 %.036.us.us, 1
  %exitcond.not = icmp eq i32 %54, %3
  br i1 %exitcond.not, label %..loopexit_crit_edge.us.us, label %.preheader.us.us, !llvm.loop !16

..loopexit_crit_edge.us.us:                       ; preds = %52, %13
  %55 = phi i32 [ %15, %13 ], [ %53, %52 ]
  %56 = add nuw i32 %.02337.us.us, 1
  %exitcond43.not = icmp eq i32 %56, %3
  br i1 %exitcond43.not, label %.loopexit34.us, label %13, !llvm.loop !17

.loopexit33:                                      ; preds = %.loopexit34.us, %29, %1
  %.025 = phi i32 [ 1, %1 ], [ 0, %29 ], [ 1, %.loopexit34.us ]
  ret i32 %.025
}